; Function Attrs: mustprogress nounwind uwtable
define hidden noundef i64 @_ZN8XBarrier5remapEm(i64 noundef %0) local_unnamed_addr #0 align 2 {
  %2 = load ptr, ptr @_ZN5XHeap5_heapE, align 8
  %3 = load i64, ptr @XAddressOffsetMask, align 8
  %4 = and i64 %3, %0
  %5 = lshr i64 %4, 21
  %6 = getelementptr inbounds i8, ptr %2, i64 816
  %7 = load ptr, ptr %6, align 8
  %8 = getelementptr inbounds ptr, ptr %7, i64 %5
  %9 = load ptr, ptr %8, align 8
  %10 = icmp eq ptr %9, null
  br i1 %10, label %11, label %14

11:                                               ; preds = %1
  %12 = load i64, ptr @XAddressGoodMask, align 8
  %13 = or i64 %12, %4
  br label %_ZN5XHeap12remap_objectEm.exit

14:                                               ; preds = %1
  %15 = getelementptr inbounds i8, ptr %2, i64 3408
  %16 = load i64, ptr @XAddressGoodMask, align 8
  %17 = or i64 %16, %4
  %18 = tail call noundef i64 @_ZNK9XRelocate14forward_objectEP11XForwardingm(ptr noundef nonnull align 8 dereferenceable(8) %15, ptr noundef nonnull %9, i64 noundef %17) #9
  br label %_ZN5XHeap12remap_objectEm.exit

_ZN5XHeap12remap_objectEm.exit:                   ; preds = %11, %14
  %.0.i = phi i64 [ %13, %11 ], [ %18, %14 ]
  ret i64 %.0.i
}